#include <math.h>
#include <stdio.h>
#include <stdlib.h>
#include <string.h>

int main()
{
    int n,i=0,x;
    scanf("%d",&n);
    int age[100];
    char num[100][10];
    for(i=0;i<n;i++)
    {
      scanf("%s %d",num[i],&age[i]);
      if (age[i]<60)
      age[i]=0;
    }
    loop:for(i=0;i<n;i++)
    {  
      x=0;
      if (age[i]>=60)                  
       {   for(int j=0;j<n;j++)
            {  
               if(age[j]>age[i])
                    x=x+1;}
           if (x==0)
           {printf("%s\n",num[i]);
             age[i]=1;
             goto loop;}
       }                  
    }
     for(i=0;i<n;i++)
     {
      if (age[i]==0)
      printf("%s\n",num[i]);                
     } 
     getchar();
     getchar();
}  